target datalayout = "e-m:e-p270:32:32-p271:32:32-p272:64:64-i64:64-i128:128-f80:128-n8:16:32:64-S128"
target triple = "x86_64-pc-linux-gnu"

%struct._packet_info = type { ptr, ptr, i32, i32, %struct.nstime_t, %struct.nstime_t, %struct.nstime_t, i32, ptr, ptr, ptr, ptr, %struct._address, %struct._address, %struct._address, %struct._address, %struct._address, %struct._address, i32, ptr, i32, %struct.anon, i32, i32, i32, i32, ptr, i32, ptr, ptr, i16, i16, i32, i32, i16, i32, i32, ptr, ptr, ptr, i8, i8, i16, i16, i16, i32, i16, i16, ptr, ptr, ptr, ptr, ptr, i32 }
%struct.nstime_t = type { i64, i32 }
%struct._address = type { i32, i32, ptr, ptr }
%struct.anon = type { i8, [3 x i8] }

@hf_zbee_zdp_ext_addr = external global i32, align 4
@.str = private unnamed_addr constant [14 x i8] c", Address: %s\00", align 1
@hf_zbee_zdp_nwk_addr = external global i32, align 4
@ett_zbee_zdp_node = external global i32, align 4

; Function Attrs: nounwind uwtable
define hidden void @dissect_zbee_zdp_req_store_node_desc(ptr noundef %0, ptr noundef %1, ptr noundef %2, i8 noundef zeroext %3) #0 {
  %5 = alloca ptr, align 8
  %6 = alloca ptr, align 8
  %7 = alloca ptr, align 8
  %8 = alloca i8, align 1
  %9 = alloca i32, align 4
  %10 = alloca i64, align 8
  store ptr %0, ptr %5, align 8
  store ptr %1, ptr %6, align 8
  store ptr %2, ptr %7, align 8
  store i8 %3, ptr %8, align 1
  store i32 0, ptr %9, align 4
  %11 = load ptr, ptr %7, align 8
  %12 = load i32, ptr @hf_zbee_zdp_nwk_addr, align 4
  %13 = load ptr, ptr %5, align 8
  %14 = load i32, ptr %9, align 4
  %15 = call ptr @proto_tree_add_item(ptr noundef %11, i32 noundef %12, ptr noundef %13, i32 noundef %14, i32 noundef 2, i32 noundef -2147483648)
  %16 = load i32, ptr %9, align 4
  %17 = add i32 %16, 2
  store i32 %17, ptr %9, align 4
  %18 = load ptr, ptr %7, align 8
  %19 = load i32, ptr @hf_zbee_zdp_ext_addr, align 4
  %20 = load ptr, ptr %5, align 8
  %21 = call i64 @zbee_parse_eui64(ptr noundef %18, i32 noundef %19, ptr noundef %20, ptr noundef %9, i32 noundef 8, ptr noundef null)
  store i64 %21, ptr %10, align 8
  %22 = load ptr, ptr %7, align 8
  %23 = load ptr, ptr %6, align 8
  %24 = load i32, ptr @ett_zbee_zdp_node, align 4
  %25 = load ptr, ptr %5, align 8
  %26 = load i8, ptr %8, align 1
  call void @zdp_parse_node_desc(ptr noundef %22, ptr noundef %23, i32 noundef 0, i32 noundef %24, ptr noundef %25, ptr noundef %9, i8 noundef zeroext %26)
  %27 = load ptr, ptr %7, align 8
  %28 = load ptr, ptr %6, align 8
  %29 = load ptr, ptr %6, align 8
  %30 = getelementptr inbounds %struct._packet_info, ptr %29, i32 0, i32 50
  %31 = load ptr, ptr %30, align 8
  %32 = load i64, ptr %10, align 8
  %33 = call ptr @eui64_to_display(ptr noundef %31, i64 noundef %32)
  call void (ptr, ptr, ptr, ...) @zbee_append_info(ptr noundef %27, ptr noundef %28, ptr noundef @.str, ptr noundef %33)
  %34 = load ptr, ptr %5, align 8
  %35 = load i32, ptr %9, align 4
  %36 = load ptr, ptr %6, align 8
  %37 = load ptr, ptr %7, align 8
  call void @zdp_dump_excess(ptr noundef %34, i32 noundef %35, ptr noundef %36, ptr noundef %37)
  ret void
}