; Function Attrs: nounwind uwtable
define hidden void @dissect_zbee_zdp_req_store_node_desc(ptr noundef %0, ptr noundef %1, ptr noundef %2, i8 noundef zeroext %3) local_unnamed_addr #0 {
  %5 = alloca i32, align 4
  %6 = load i32, ptr @hf_zbee_zdp_nwk_addr, align 4
  %7 = tail call ptr @proto_tree_add_item(ptr noundef %2, i32 noundef %6, ptr noundef %0, i32 noundef 0, i32 noundef 2, i32 noundef -2147483648) #2
  store i32 2, ptr %5, align 4
  %8 = load i32, ptr @hf_zbee_zdp_ext_addr, align 4
  %9 = call i64 @zbee_parse_eui64(ptr noundef %2, i32 noundef %8, ptr noundef %0, ptr noundef nonnull %5, i32 noundef 8, ptr noundef null) #2
  %10 = load i32, ptr @ett_zbee_zdp_node, align 4
  call void @zdp_parse_node_desc(ptr noundef %2, ptr noundef %1, i32 noundef 0, i32 noundef %10, ptr noundef %0, ptr noundef nonnull %5, i8 noundef zeroext %3) #2
  %11 = getelementptr inbounds nuw i8, ptr %1, i64 408
  %12 = load ptr, ptr %11, align 8
  %13 = call ptr @eui64_to_display(ptr noundef %12, i64 noundef %9) #2
  call void (ptr, ptr, ptr, ...) @zbee_append_info(ptr noundef %2, ptr noundef %1, ptr noundef nonnull @.str, ptr noundef %13) #2
  %14 = load i32, ptr %5, align 4
  call void @zdp_dump_excess(ptr noundef %0, i32 noundef %14, ptr noundef %1, ptr noundef %2) #2
  ret void
}